target datalayout = "e-m:e-p270:32:32-p271:32:32-p272:64:64-i64:64-i128:128-f80:128-n8:16:32:64-S128"
target triple = "x86_64-pc-linux-gnu"

%"struct.boost::urls::url_base::op_t" = type { ptr, ptr, ptr, ptr }
%"class.boost::core::basic_string_view" = type { ptr, i64 }
%"struct.std::less_equal" = type { i8 }

; Function Attrs: mustprogress nounwind uwtable
define linkonce_odr hidden noundef zeroext i1 @_ZNKSt10less_equalIPKcEclES1_S1_(ptr noundef nonnull align 1 dereferenceable(1) %0, ptr noundef %1, ptr noundef %2) #2 comdat align 2 {
  %4 = alloca ptr, align 8
  %5 = alloca ptr, align 8
  %6 = alloca ptr, align 8
  store ptr %0, ptr %4, align 8, !tbaa !7
  store ptr %1, ptr %5, align 8, !tbaa !7
  store ptr %2, ptr %6, align 8, !tbaa !7
  %7 = load ptr, ptr %5, align 8, !tbaa !7
  %8 = ptrtoint ptr %7 to i64
  %9 = load ptr, ptr %6, align 8, !tbaa !7
  %10 = ptrtoint ptr %9 to i64
  %11 = icmp ule i64 %8, %10
  ret i1 %11
}

; Function Attrs: mustprogress nounwind uwtable
define linkonce_odr hidden noundef i64 @_ZNK5boost4core17basic_string_viewIcE4sizeEv(ptr noundef nonnull align 8 dereferenceable(16) %0) #2 comdat align 2 {
  %2 = alloca ptr, align 8
  store ptr %0, ptr %2, align 8, !tbaa !7
  %3 = load ptr, ptr %2, align 8
  %4 = getelementptr inbounds nuw %"class.boost::core::basic_string_view", ptr %3, i32 0, i32 1
  %5 = load i64, ptr %4, align 8, !tbaa !60
  ret i64 %5
}

; Function Attrs: mustprogress nounwind uwtable
define linkonce_odr hidden noundef ptr @_ZNK5boost4core17basic_string_viewIcE4dataEv(ptr noundef nonnull align 8 dereferenceable(16) %0) #2 comdat align 2 {
  %2 = alloca ptr, align 8
  store ptr %0, ptr %2, align 8, !tbaa !7
  %3 = load ptr, ptr %2, align 8
  %4 = getelementptr inbounds nuw %"class.boost::core::basic_string_view", ptr %3, i32 0, i32 0
  %5 = load ptr, ptr %4, align 8, !tbaa !58
  ret ptr %5
}

; Function Attrs: inlinehint mustprogress nounwind uwtable
define linkonce_odr hidden noundef zeroext i1 @_ZN5boost4urls6detail14is_overlappingENS_4core17basic_string_viewIcEES4_(ptr %0, i64 %1, ptr %2, i64 %3) #1 comdat {
  %5 = alloca i1, align 1
  %6 = alloca %"class.boost::core::basic_string_view", align 8
  %7 = alloca %"class.boost::core::basic_string_view", align 8
  %8 = alloca ptr, align 8
  %9 = alloca ptr, align 8
  %10 = alloca ptr, align 8
  %11 = alloca ptr, align 8
  %12 = alloca %"struct.std::less_equal", align 1
  %13 = alloca i32, align 4
  %14 = getelementptr inbounds nuw { ptr, i64 }, ptr %6, i32 0, i32 0
  store ptr %0, ptr %14, align 8
  %15 = getelementptr inbounds nuw { ptr, i64 }, ptr %6, i32 0, i32 1
  store i64 %1, ptr %15, align 8
  %16 = getelementptr inbounds nuw { ptr, i64 }, ptr %7, i32 0, i32 0
  store ptr %2, ptr %16, align 8
  %17 = getelementptr inbounds nuw { ptr, i64 }, ptr %7, i32 0, i32 1
  store i64 %3, ptr %17, align 8
  call void @llvm.lifetime.start.p0(i64 8, ptr %8) #9
  %18 = call noundef ptr @_ZNK5boost4core17basic_string_viewIcE4dataEv(ptr noundef nonnull align 8 dereferenceable(16) %6) #9
  store ptr %18, ptr %8, align 8, !tbaa !7
  call void @llvm.lifetime.start.p0(i64 8, ptr %9) #9
  %19 = load ptr, ptr %8, align 8, !tbaa !7
  %20 = call noundef i64 @_ZNK5boost4core17basic_string_viewIcE4sizeEv(ptr noundef nonnull align 8 dereferenceable(16) %6) #9
  %21 = getelementptr inbounds nuw i8, ptr %19, i64 %20
  store ptr %21, ptr %9, align 8, !tbaa !7
  call void @llvm.lifetime.start.p0(i64 8, ptr %10) #9
  %22 = call noundef ptr @_ZNK5boost4core17basic_string_viewIcE4dataEv(ptr noundef nonnull align 8 dereferenceable(16) %7) #9
  store ptr %22, ptr %10, align 8, !tbaa !7
  call void @llvm.lifetime.start.p0(i64 8, ptr %11) #9
  %23 = load ptr, ptr %10, align 8, !tbaa !7
  %24 = call noundef i64 @_ZNK5boost4core17basic_string_viewIcE4sizeEv(ptr noundef nonnull align 8 dereferenceable(16) %7) #9
  %25 = getelementptr inbounds nuw i8, ptr %23, i64 %24
  store ptr %25, ptr %11, align 8, !tbaa !7
  call void @llvm.lifetime.start.p0(i64 1, ptr %12) #9
  call void @llvm.memset.p0.i64(ptr align 1 %12, i8 0, i64 1, i1 false)
  %26 = load ptr, ptr %9, align 8, !tbaa !7
  %27 = load ptr, ptr %10, align 8, !tbaa !7
  %28 = call noundef zeroext i1 @_ZNKSt10less_equalIPKcEclES1_S1_(ptr noundef nonnull align 1 dereferenceable(1) %12, ptr noundef %26, ptr noundef %27) #9
  br i1 %28, label %29, label %30

29:                                               ; preds = %4
  store i1 false, ptr %5, align 1
  store i32 1, ptr %13, align 4
  br label %36

30:                                               ; preds = %4
  %31 = load ptr, ptr %11, align 8, !tbaa !7
  %32 = load ptr, ptr %8, align 8, !tbaa !7
  %33 = call noundef zeroext i1 @_ZNKSt10less_equalIPKcEclES1_S1_(ptr noundef nonnull align 1 dereferenceable(1) %12, ptr noundef %31, ptr noundef %32) #9
  br i1 %33, label %34, label %35

34:                                               ; preds = %30
  store i1 false, ptr %5, align 1
  store i32 1, ptr %13, align 4
  br label %36

35:                                               ; preds = %30
  store i1 true, ptr %5, align 1
  store i32 1, ptr %13, align 4
  br label %36

36:                                               ; preds = %35, %34, %29
  call void @llvm.lifetime.end.p0(i64 1, ptr %12) #9
  call void @llvm.lifetime.end.p0(i64 8, ptr %11) #9
  call void @llvm.lifetime.end.p0(i64 8, ptr %10) #9
  call void @llvm.lifetime.end.p0(i64 8, ptr %9) #9
  call void @llvm.lifetime.end.p0(i64 8, ptr %8) #9
  %37 = load i1, ptr %5, align 1
  ret i1 %37
}

; Function Attrs: inlinehint mustprogress nounwind uwtable
define linkonce_odr hidden void @_ZN5boost4urls6detail15move_chars_implElRKNS_4core17basic_string_viewIcEE(i64 noundef %0, ptr noundef nonnull align 8 dereferenceable(16) %1) #1 comdat {
  %3 = alloca i64, align 8
  %4 = alloca ptr, align 8
  store i64 %0, ptr %3, align 8, !tbaa !21
  store ptr %1, ptr %4, align 8, !tbaa !7
  ret void
}

; Function Attrs: mustprogress nounwind uwtable
define linkonce_odr hidden void @_ZN5boost4urls6detail15move_chars_implIJEEEvlRKNS_4core17basic_string_viewIcEERS5_DpRT_(i64 noundef %0, ptr noundef nonnull align 8 dereferenceable(16) %1, ptr noundef nonnull align 8 dereferenceable(16) %2) #2 comdat {
  %4 = alloca i64, align 8
  %5 = alloca ptr, align 8
  %6 = alloca ptr, align 8
  %7 = alloca %"class.boost::core::basic_string_view", align 8
  %8 = alloca %"class.boost::core::basic_string_view", align 8
  %9 = alloca %"class.boost::core::basic_string_view", align 8
  store i64 %0, ptr %4, align 8, !tbaa !21
  store ptr %1, ptr %5, align 8, !tbaa !7
  store ptr %2, ptr %6, align 8, !tbaa !7
  %10 = load ptr, ptr %5, align 8, !tbaa !7
  call void @llvm.memcpy.p0.p0.i64(ptr align 8 %7, ptr align 8 %10, i64 16, i1 false), !tbaa.struct !37
  %11 = load ptr, ptr %6, align 8, !tbaa !7
  call void @llvm.memcpy.p0.p0.i64(ptr align 8 %8, ptr align 8 %11, i64 16, i1 false), !tbaa.struct !37
  %12 = getelementptr inbounds nuw { ptr, i64 }, ptr %7, i32 0, i32 0
  %13 = load ptr, ptr %12, align 8
  %14 = getelementptr inbounds nuw { ptr, i64 }, ptr %7, i32 0, i32 1
  %15 = load i64, ptr %14, align 8
  %16 = getelementptr inbounds nuw { ptr, i64 }, ptr %8, i32 0, i32 0
  %17 = load ptr, ptr %16, align 8
  %18 = getelementptr inbounds nuw { ptr, i64 }, ptr %8, i32 0, i32 1
  %19 = load i64, ptr %18, align 8
  %20 = call noundef zeroext i1 @_ZN5boost4urls6detail14is_overlappingENS_4core17basic_string_viewIcEES4_(ptr %13, i64 %15, ptr %17, i64 %19) #9
  br i1 %20, label %21, label %29

21:                                               ; preds = %3
  call void @llvm.lifetime.start.p0(i64 16, ptr %9) #9
  %22 = load ptr, ptr %6, align 8, !tbaa !7
  %23 = call noundef ptr @_ZNK5boost4core17basic_string_viewIcE4dataEv(ptr noundef nonnull align 8 dereferenceable(16) %22) #9
  %24 = load i64, ptr %4, align 8, !tbaa !21
  %25 = getelementptr inbounds i8, ptr %23, i64 %24
  %26 = load ptr, ptr %6, align 8, !tbaa !7
  %27 = call noundef i64 @_ZNK5boost4core17basic_string_viewIcE4sizeEv(ptr noundef nonnull align 8 dereferenceable(16) %26) #9
  call void @_ZN5boost4core17basic_string_viewIcEC2EPKcm(ptr noundef nonnull align 8 dereferenceable(16) %9, ptr noundef %25, i64 noundef %27) #9
  %28 = load ptr, ptr %6, align 8, !tbaa !7
  call void @llvm.memcpy.p0.p0.i64(ptr align 8 %28, ptr align 8 %9, i64 16, i1 false), !tbaa.struct !37
  call void @llvm.lifetime.end.p0(i64 16, ptr %9) #9
  br label %29

29:                                               ; preds = %21, %3
  %30 = load i64, ptr %4, align 8, !tbaa !21
  %31 = load ptr, ptr %5, align 8, !tbaa !7
  call void @_ZN5boost4urls6detail15move_chars_implElRKNS_4core17basic_string_viewIcEE(i64 noundef %30, ptr noundef nonnull align 8 dereferenceable(16) %31) #9
  ret void
}

; Function Attrs: mustprogress nounwind uwtable
define linkonce_odr hidden void @_ZN5boost4urls6detail15move_chars_implIJNS_4core17basic_string_viewIcEEEEEvlRKS5_RS5_DpRT_(i64 noundef %0, ptr noundef nonnull align 8 dereferenceable(16) %1, ptr noundef nonnull align 8 dereferenceable(16) %2, ptr noundef nonnull align 8 dereferenceable(16) %3) #2 comdat {
  %5 = alloca i64, align 8
  %6 = alloca ptr, align 8
  %7 = alloca ptr, align 8
  %8 = alloca ptr, align 8
  %9 = alloca %"class.boost::core::basic_string_view", align 8
  %10 = alloca %"class.boost::core::basic_string_view", align 8
  %11 = alloca %"class.boost::core::basic_string_view", align 8
  store i64 %0, ptr %5, align 8, !tbaa !21
  store ptr %1, ptr %6, align 8, !tbaa !7
  store ptr %2, ptr %7, align 8, !tbaa !7
  store ptr %3, ptr %8, align 8, !tbaa !7
  %12 = load ptr, ptr %6, align 8, !tbaa !7
  call void @llvm.memcpy.p0.p0.i64(ptr align 8 %9, ptr align 8 %12, i64 16, i1 false), !tbaa.struct !37
  %13 = load ptr, ptr %7, align 8, !tbaa !7
  call void @llvm.memcpy.p0.p0.i64(ptr align 8 %10, ptr align 8 %13, i64 16, i1 false), !tbaa.struct !37
  %14 = getelementptr inbounds nuw { ptr, i64 }, ptr %9, i32 0, i32 0
  %15 = load ptr, ptr %14, align 8
  %16 = getelementptr inbounds nuw { ptr, i64 }, ptr %9, i32 0, i32 1
  %17 = load i64, ptr %16, align 8
  %18 = getelementptr inbounds nuw { ptr, i64 }, ptr %10, i32 0, i32 0
  %19 = load ptr, ptr %18, align 8
  %20 = getelementptr inbounds nuw { ptr, i64 }, ptr %10, i32 0, i32 1
  %21 = load i64, ptr %20, align 8
  %22 = call noundef zeroext i1 @_ZN5boost4urls6detail14is_overlappingENS_4core17basic_string_viewIcEES4_(ptr %15, i64 %17, ptr %19, i64 %21) #9
  br i1 %22, label %23, label %31

23:                                               ; preds = %4
  call void @llvm.lifetime.start.p0(i64 16, ptr %11) #9
  %24 = load ptr, ptr %7, align 8, !tbaa !7
  %25 = call noundef ptr @_ZNK5boost4core17basic_string_viewIcE4dataEv(ptr noundef nonnull align 8 dereferenceable(16) %24) #9
  %26 = load i64, ptr %5, align 8, !tbaa !21
  %27 = getelementptr inbounds i8, ptr %25, i64 %26
  %28 = load ptr, ptr %7, align 8, !tbaa !7
  %29 = call noundef i64 @_ZNK5boost4core17basic_string_viewIcE4sizeEv(ptr noundef nonnull align 8 dereferenceable(16) %28) #9
  call void @_ZN5boost4core17basic_string_viewIcEC2EPKcm(ptr noundef nonnull align 8 dereferenceable(16) %11, ptr noundef %27, i64 noundef %29) #9
  %30 = load ptr, ptr %7, align 8, !tbaa !7
  call void @llvm.memcpy.p0.p0.i64(ptr align 8 %30, ptr align 8 %11, i64 16, i1 false), !tbaa.struct !37
  call void @llvm.lifetime.end.p0(i64 16, ptr %11) #9
  br label %31

31:                                               ; preds = %23, %4
  %32 = load i64, ptr %5, align 8, !tbaa !21
  %33 = load ptr, ptr %6, align 8, !tbaa !7
  %34 = load ptr, ptr %8, align 8, !tbaa !7
  call void @_ZN5boost4urls6detail15move_chars_implIJEEEvlRKNS_4core17basic_string_viewIcEERS5_DpRT_(i64 noundef %32, ptr noundef nonnull align 8 dereferenceable(16) %33, ptr noundef nonnull align 8 dereferenceable(16) %34) #9
  ret void
}

; Function Attrs: mustprogress nounwind uwtable
define linkonce_odr hidden void @_ZN5boost4core17basic_string_viewIcEC2EPKcm(ptr noundef nonnull align 8 dereferenceable(16) %0, ptr noundef %1, i64 noundef %2) unnamed_addr #2 comdat align 2 {
  %4 = alloca ptr, align 8
  %5 = alloca ptr, align 8
  %6 = alloca i64, align 8
  store ptr %0, ptr %4, align 8, !tbaa !7
  store ptr %1, ptr %5, align 8, !tbaa !7
  store i64 %2, ptr %6, align 8, !tbaa !21
  %7 = load ptr, ptr %4, align 8
  %8 = getelementptr inbounds nuw %"class.boost::core::basic_string_view", ptr %7, i32 0, i32 0
  %9 = load ptr, ptr %5, align 8, !tbaa !7
  store ptr %9, ptr %8, align 8, !tbaa !58
  %10 = getelementptr inbounds nuw %"class.boost::core::basic_string_view", ptr %7, i32 0, i32 1
  %11 = load i64, ptr %6, align 8, !tbaa !21
  store i64 %11, ptr %10, align 8, !tbaa !60
  ret void
}

; Function Attrs: mustprogress nounwind uwtable
define linkonce_odr hidden void @_ZN5boost4urls6detail10move_charsIJEEEvPcPKcmDpRT_(ptr noundef %0, ptr noundef %1, i64 noundef %2) #2 comdat {
  %4 = alloca ptr, align 8
  %5 = alloca ptr, align 8
  %6 = alloca i64, align 8
  %7 = alloca %"class.boost::core::basic_string_view", align 8
  store ptr %0, ptr %4, align 8, !tbaa !7
  store ptr %1, ptr %5, align 8, !tbaa !7
  store i64 %2, ptr %6, align 8, !tbaa !21
  %8 = load ptr, ptr %4, align 8, !tbaa !7
  %9 = load ptr, ptr %5, align 8, !tbaa !7
  %10 = ptrtoint ptr %8 to i64
  %11 = ptrtoint ptr %9 to i64
  %12 = sub i64 %10, %11
  call void @llvm.lifetime.start.p0(i64 16, ptr %7) #9
  %13 = load ptr, ptr %5, align 8, !tbaa !7
  %14 = load i64, ptr %6, align 8, !tbaa !21
  call void @_ZN5boost4core17basic_string_viewIcEC2EPKcm(ptr noundef nonnull align 8 dereferenceable(16) %7, ptr noundef %13, i64 noundef %14) #9
  call void @_ZN5boost4urls6detail15move_chars_implElRKNS_4core17basic_string_viewIcEE(i64 noundef %12, ptr noundef nonnull align 8 dereferenceable(16) %7) #9
  call void @llvm.lifetime.end.p0(i64 16, ptr %7) #9
  %15 = load ptr, ptr %4, align 8, !tbaa !7
  %16 = load ptr, ptr %5, align 8, !tbaa !7
  %17 = load i64, ptr %6, align 8, !tbaa !21
  call void @llvm.memmove.p0.p0.i64(ptr align 1 %15, ptr align 1 %16, i64 %17, i1 false)
  ret void
}

; Function Attrs: mustprogress nounwind uwtable
define linkonce_odr hidden void @_ZN5boost4urls6detail10move_charsIJNS_4core17basic_string_viewIcEEEEEvPcPKcmDpRT_(ptr noundef %0, ptr noundef %1, i64 noundef %2, ptr noundef nonnull align 8 dereferenceable(16) %3) #2 comdat {
  %5 = alloca ptr, align 8
  %6 = alloca ptr, align 8
  %7 = alloca i64, align 8
  %8 = alloca ptr, align 8
  %9 = alloca %"class.boost::core::basic_string_view", align 8
  store ptr %0, ptr %5, align 8, !tbaa !7
  store ptr %1, ptr %6, align 8, !tbaa !7
  store i64 %2, ptr %7, align 8, !tbaa !21
  store ptr %3, ptr %8, align 8, !tbaa !7
  %10 = load ptr, ptr %5, align 8, !tbaa !7
  %11 = load ptr, ptr %6, align 8, !tbaa !7
  %12 = ptrtoint ptr %10 to i64
  %13 = ptrtoint ptr %11 to i64
  %14 = sub i64 %12, %13
  call void @llvm.lifetime.start.p0(i64 16, ptr %9) #9
  %15 = load ptr, ptr %6, align 8, !tbaa !7
  %16 = load i64, ptr %7, align 8, !tbaa !21
  call void @_ZN5boost4core17basic_string_viewIcEC2EPKcm(ptr noundef nonnull align 8 dereferenceable(16) %9, ptr noundef %15, i64 noundef %16) #9
  %17 = load ptr, ptr %8, align 8, !tbaa !7
  call void @_ZN5boost4urls6detail15move_chars_implIJEEEvlRKNS_4core17basic_string_viewIcEERS5_DpRT_(i64 noundef %14, ptr noundef nonnull align 8 dereferenceable(16) %9, ptr noundef nonnull align 8 dereferenceable(16) %17) #9
  call void @llvm.lifetime.end.p0(i64 16, ptr %9) #9
  %18 = load ptr, ptr %5, align 8, !tbaa !7
  %19 = load ptr, ptr %6, align 8, !tbaa !7
  %20 = load i64, ptr %7, align 8, !tbaa !21
  call void @llvm.memmove.p0.p0.i64(ptr align 1 %18, ptr align 1 %19, i64 %20, i1 false)
  ret void
}

; Function Attrs: mustprogress nounwind uwtable
define linkonce_odr hidden void @_ZN5boost4urls6detail10move_charsIJNS_4core17basic_string_viewIcEES5_EEEvPcPKcmDpRT_(ptr noundef %0, ptr noundef %1, i64 noundef %2, ptr noundef nonnull align 8 dereferenceable(16) %3, ptr noundef nonnull align 8 dereferenceable(16) %4) #2 comdat {
  %6 = alloca ptr, align 8
  %7 = alloca ptr, align 8
  %8 = alloca i64, align 8
  %9 = alloca ptr, align 8
  %10 = alloca ptr, align 8
  %11 = alloca %"class.boost::core::basic_string_view", align 8
  store ptr %0, ptr %6, align 8, !tbaa !7
  store ptr %1, ptr %7, align 8, !tbaa !7
  store i64 %2, ptr %8, align 8, !tbaa !21
  store ptr %3, ptr %9, align 8, !tbaa !7
  store ptr %4, ptr %10, align 8, !tbaa !7
  %12 = load ptr, ptr %6, align 8, !tbaa !7
  %13 = load ptr, ptr %7, align 8, !tbaa !7
  %14 = ptrtoint ptr %12 to i64
  %15 = ptrtoint ptr %13 to i64
  %16 = sub i64 %14, %15
  call void @llvm.lifetime.start.p0(i64 16, ptr %11) #9
  %17 = load ptr, ptr %7, align 8, !tbaa !7
  %18 = load i64, ptr %8, align 8, !tbaa !21
  call void @_ZN5boost4core17basic_string_viewIcEC2EPKcm(ptr noundef nonnull align 8 dereferenceable(16) %11, ptr noundef %17, i64 noundef %18) #9
  %19 = load ptr, ptr %9, align 8, !tbaa !7
  %20 = load ptr, ptr %10, align 8, !tbaa !7
  call void @_ZN5boost4urls6detail15move_chars_implIJNS_4core17basic_string_viewIcEEEEEvlRKS5_RS5_DpRT_(i64 noundef %16, ptr noundef nonnull align 8 dereferenceable(16) %11, ptr noundef nonnull align 8 dereferenceable(16) %19, ptr noundef nonnull align 8 dereferenceable(16) %20) #9
  call void @llvm.lifetime.end.p0(i64 16, ptr %11) #9
  %21 = load ptr, ptr %6, align 8, !tbaa !7
  %22 = load ptr, ptr %7, align 8, !tbaa !7
  %23 = load i64, ptr %8, align 8, !tbaa !21
  call void @llvm.memmove.p0.p0.i64(ptr align 1 %21, ptr align 1 %22, i64 %23, i1 false)
  ret void
}

; Function Attrs: mustprogress nounwind uwtable
define void @_ZN5boost4urls8url_base4op_t4moveEPcPKcm(ptr noundef nonnull align 8 dereferenceable(32) %0, ptr noundef %1, ptr noundef %2, i64 noundef %3) #2 align 2 {
  %5 = alloca ptr, align 8
  %6 = alloca ptr, align 8
  %7 = alloca ptr, align 8
  %8 = alloca i64, align 8
  store ptr %0, ptr %5, align 8, !tbaa !7
  store ptr %1, ptr %6, align 8, !tbaa !7
  store ptr %2, ptr %7, align 8, !tbaa !7
  store i64 %3, ptr %8, align 8, !tbaa !21
  %9 = load ptr, ptr %5, align 8
  %10 = load i64, ptr %8, align 8, !tbaa !21
  %11 = icmp ne i64 %10, 0
  br i1 %11, label %13, label %12

12:                                               ; preds = %4
  br label %39

13:                                               ; preds = %4
  %14 = getelementptr inbounds nuw %"struct.boost::urls::url_base::op_t", ptr %9, i32 0, i32 1
  %15 = load ptr, ptr %14, align 8, !tbaa !19
  %16 = icmp ne ptr %15, null
  br i1 %16, label %17, label %35

17:                                               ; preds = %13
  %18 = getelementptr inbounds nuw %"struct.boost::urls::url_base::op_t", ptr %9, i32 0, i32 2
  %19 = load ptr, ptr %18, align 8, !tbaa !20
  %20 = icmp ne ptr %19, null
  br i1 %20, label %21, label %29

21:                                               ; preds = %17
  %22 = load ptr, ptr %6, align 8, !tbaa !7
  %23 = load ptr, ptr %7, align 8, !tbaa !7
  %24 = load i64, ptr %8, align 8, !tbaa !21
  %25 = getelementptr inbounds nuw %"struct.boost::urls::url_base::op_t", ptr %9, i32 0, i32 1
  %26 = load ptr, ptr %25, align 8, !tbaa !19
  %27 = getelementptr inbounds nuw %"struct.boost::urls::url_base::op_t", ptr %9, i32 0, i32 2
  %28 = load ptr, ptr %27, align 8, !tbaa !20
  call void @_ZN5boost4urls6detail10move_charsIJNS_4core17basic_string_viewIcEES5_EEEvPcPKcmDpRT_(ptr noundef %22, ptr noundef %23, i64 noundef %24, ptr noundef nonnull align 8 dereferenceable(16) %26, ptr noundef nonnull align 8 dereferenceable(16) %28) #9
  br label %39

29:                                               ; preds = %17
  %30 = load ptr, ptr %6, align 8, !tbaa !7
  %31 = load ptr, ptr %7, align 8, !tbaa !7
  %32 = load i64, ptr %8, align 8, !tbaa !21
  %33 = getelementptr inbounds nuw %"struct.boost::urls::url_base::op_t", ptr %9, i32 0, i32 1
  %34 = load ptr, ptr %33, align 8, !tbaa !19
  call void @_ZN5boost4urls6detail10move_charsIJNS_4core17basic_string_viewIcEEEEEvPcPKcmDpRT_(ptr noundef %30, ptr noundef %31, i64 noundef %32, ptr noundef nonnull align 8 dereferenceable(16) %34) #9
  br label %39

35:                                               ; preds = %13
  %36 = load ptr, ptr %6, align 8, !tbaa !7
  %37 = load ptr, ptr %7, align 8, !tbaa !7
  %38 = load i64, ptr %8, align 8, !tbaa !21
  call void @_ZN5boost4urls6detail10move_charsIJEEEvPcPKcmDpRT_(ptr noundef %36, ptr noundef %37, i64 noundef %38) #9
  br label %39

39:                                               ; preds = %35, %29, %21, %12
  ret void
}