; Function Attrs: mustprogress nofree norecurse nosync nounwind willreturn memory(readwrite, inaccessiblemem: none) uwtable
define void @_ZN5boost4urls8url_base4op_t4moveEPcPKcm(ptr nocapture noundef nonnull readonly align 8 dereferenceable(32) %0, ptr noundef %1, ptr noundef %2, i64 noundef %3) local_unnamed_addr #9 align 2 {
  %.not = icmp eq i64 %3, 0
  br i1 %.not, label %31, label %5

5:                                                ; preds = %4
  %6 = getelementptr inbounds nuw i8, ptr %0, i64 8
  %7 = load ptr, ptr %6, align 8, !tbaa !12
  %.not12 = icmp eq ptr %7, null
  br i1 %.not12, label %.sink.split, label %8

8:                                                ; preds = %5
  %9 = getelementptr inbounds nuw i8, ptr %0, i64 16
  %10 = load ptr, ptr %9, align 8, !tbaa !13
  %.not13 = icmp eq ptr %10, null
  br i1 %.not13, label %23, label %11

11:                                               ; preds = %8
  %12 = ptrtoint ptr %1 to i64
  %13 = ptrtoint ptr %2 to i64
  %14 = sub i64 %12, %13
  %.sroa.0.0.copyload.i.i = load ptr, ptr %7, align 8, !tbaa !11
  %.sroa.2.0..sroa_idx.i.i = getelementptr inbounds i8, ptr %7, i64 8
  %.sroa.2.0.copyload.i.i = load i64, ptr %.sroa.2.0..sroa_idx.i.i, align 8, !tbaa !14
  %15 = getelementptr inbounds nuw i8, ptr %2, i64 %3
  %.not.i.i.i = icmp ugt ptr %15, %.sroa.0.0.copyload.i.i
  %16 = getelementptr inbounds nuw i8, ptr %.sroa.0.0.copyload.i.i, i64 %.sroa.2.0.copyload.i.i
  %.not10.i.i.i = icmp ugt ptr %16, %2
  %.0.i.i.i = select i1 %.not.i.i.i, i1 %.not10.i.i.i, i1 false
  br i1 %.0.i.i.i, label %17, label %19

17:                                               ; preds = %11
  %18 = getelementptr inbounds i8, ptr %.sroa.0.0.copyload.i.i, i64 %14
  store ptr %18, ptr %7, align 8, !tbaa !11
  br label %19

19:                                               ; preds = %17, %11
  %.sroa.0.0.copyload.i.i.i = load ptr, ptr %10, align 8, !tbaa !11
  %.sroa.2.0..sroa_idx.i.i.i = getelementptr inbounds i8, ptr %10, i64 8
  %.sroa.2.0.copyload.i.i.i = load i64, ptr %.sroa.2.0..sroa_idx.i.i.i, align 8, !tbaa !14
  %.not.i.i.i.i = icmp ugt ptr %15, %.sroa.0.0.copyload.i.i.i
  %20 = getelementptr inbounds nuw i8, ptr %.sroa.0.0.copyload.i.i.i, i64 %.sroa.2.0.copyload.i.i.i
  %.not10.i.i.i.i = icmp ugt ptr %20, %2
  %.0.i.i.i.i = select i1 %.not.i.i.i.i, i1 %.not10.i.i.i.i, i1 false
  br i1 %.0.i.i.i.i, label %21, label %.sink.split

21:                                               ; preds = %19
  %22 = getelementptr inbounds i8, ptr %.sroa.0.0.copyload.i.i.i, i64 %14
  store ptr %22, ptr %10, align 8, !tbaa !11
  br label %.sink.split

23:                                               ; preds = %8
  %.sroa.0.0.copyload.i.i14 = load ptr, ptr %7, align 8, !tbaa !11
  %.sroa.2.0..sroa_idx.i.i15 = getelementptr inbounds i8, ptr %7, i64 8
  %.sroa.2.0.copyload.i.i16 = load i64, ptr %.sroa.2.0..sroa_idx.i.i15, align 8, !tbaa !14
  %24 = getelementptr inbounds nuw i8, ptr %2, i64 %3
  %.not.i.i.i17 = icmp ugt ptr %24, %.sroa.0.0.copyload.i.i14
  %25 = getelementptr inbounds nuw i8, ptr %.sroa.0.0.copyload.i.i14, i64 %.sroa.2.0.copyload.i.i16
  %.not10.i.i.i18 = icmp ugt ptr %25, %2
  %.0.i.i.i19 = select i1 %.not.i.i.i17, i1 %.not10.i.i.i18, i1 false
  br i1 %.0.i.i.i19, label %26, label %.sink.split

26:                                               ; preds = %23
  %27 = ptrtoint ptr %1 to i64
  %28 = ptrtoint ptr %2 to i64
  %29 = sub i64 %27, %28
  %30 = getelementptr inbounds i8, ptr %.sroa.0.0.copyload.i.i14, i64 %29
  store ptr %30, ptr %7, align 8, !tbaa !11
  br label %.sink.split

.sink.split:                                      ; preds = %5, %26, %23, %21, %19
  tail call void @llvm.memmove.p0.p0.i64(ptr align 1 %1, ptr align 1 %2, i64 %3, i1 false)
  br label %31

31:                                               ; preds = %.sink.split, %4
  ret void
}